target datalayout = "e-m:e-p270:32:32-p271:32:32-p272:64:64-i64:64-i128:128-f80:128-n8:16:32:64-S128"
target triple = "x86_64-pc-linux-gnu"

%struct.ident_t = type { i32, i32, i32, i32, ptr }
%"class.ncnn::GroupNorm" = type { %"class.ncnn::Layer", i32, i32, float, i32, %"class.ncnn::Mat", %"class.ncnn::Mat" }
%"class.ncnn::Layer" = type { ptr, i8, i8, i8, i8, i8, i8, i8, i8, i8, i8, i8, i8, i8, i8, i8, i8, i8, i8, i8, i8, i32, ptr, i32, %"class.std::__cxx11::basic_string", %"class.std::__cxx11::basic_string", %"class.std::vector", %"class.std::vector", %"class.std::vector.3", %"class.std::vector.3" }
%"class.std::__cxx11::basic_string" = type { %"struct.std::__cxx11::basic_string<char>::_Alloc_hider", i64, %union.anon }
%"struct.std::__cxx11::basic_string<char>::_Alloc_hider" = type { ptr }
%union.anon = type { i64, [8 x i8] }
%"class.std::vector" = type { %"struct.std::_Vector_base" }
%"struct.std::_Vector_base" = type { %"struct.std::_Vector_base<int, std::allocator<int>>::_Vector_impl" }
%"struct.std::_Vector_base<int, std::allocator<int>>::_Vector_impl" = type { %"struct.std::_Vector_base<int, std::allocator<int>>::_Vector_impl_data" }
%"struct.std::_Vector_base<int, std::allocator<int>>::_Vector_impl_data" = type { ptr, ptr, ptr }
%"class.std::vector.3" = type { %"struct.std::_Vector_base.4" }
%"struct.std::_Vector_base.4" = type { %"struct.std::_Vector_base<ncnn::Mat, std::allocator<ncnn::Mat>>::_Vector_impl" }
%"struct.std::_Vector_base<ncnn::Mat, std::allocator<ncnn::Mat>>::_Vector_impl" = type { %"struct.std::_Vector_base<ncnn::Mat, std::allocator<ncnn::Mat>>::_Vector_impl_data" }
%"struct.std::_Vector_base<ncnn::Mat, std::allocator<ncnn::Mat>>::_Vector_impl_data" = type { ptr, ptr, ptr }
%"class.ncnn::Mat" = type { ptr, ptr, i64, i32, ptr, i32, i32, i32, i32, i32, i64 }
%"class.ncnn::Option" = type { i8, i32, ptr, ptr, i32, i8, i8, i8, i8, i8, i8, i8, i8, i8, i8, i8, i8, i8, i8, i8, i8, i8, i8, i8, i8, i32, i8, i8, i8, i8, i8, i8, i8, i8, i8, i8, i8, i8 }

@2 = private unnamed_addr constant %struct.ident_t { i32 0, i32 2, i32 0, i32 22, ptr @0 }, align 8

; Function Attrs: mustprogress nounwind uwtable
define hidden noundef i32 @_ZNK4ncnn9GroupNorm15forward_inplaceERNS_3MatERKNS_6OptionE(ptr noundef nonnull align 8 dereferenceable(368) %0, ptr noundef nonnull align 8 dereferenceable(72) %1, ptr noundef nonnull align 8 dereferenceable(64) %2) unnamed_addr #3 align 2 {
  %4 = alloca ptr, align 8
  %5 = alloca ptr, align 8
  %6 = alloca ptr, align 8
  %7 = alloca i32, align 4
  %8 = alloca i32, align 4
  %9 = alloca i32, align 4
  %10 = alloca i32, align 4
  %11 = alloca i32, align 4
  %12 = alloca i32, align 4
  %13 = alloca i32, align 4
  %14 = call i32 @__kmpc_global_thread_num(ptr @2)
  store ptr %0, ptr %4, align 8, !tbaa !4
  store ptr %1, ptr %5, align 8, !tbaa !40
  store ptr %2, ptr %6, align 8, !tbaa !41
  %15 = load ptr, ptr %4, align 8
  call void @llvm.lifetime.start.p0(i64 4, ptr %7) #10
  %16 = load ptr, ptr %5, align 8, !tbaa !40
  %17 = getelementptr inbounds nuw %"class.ncnn::Mat", ptr %16, i32 0, i32 5
  %18 = load i32, ptr %17, align 8, !tbaa !43
  store i32 %18, ptr %7, align 4, !tbaa !44
  call void @llvm.lifetime.start.p0(i64 4, ptr %8) #10
  %19 = getelementptr inbounds nuw %"class.ncnn::GroupNorm", ptr %15, i32 0, i32 2
  %20 = load i32, ptr %19, align 4, !tbaa !35
  %21 = getelementptr inbounds nuw %"class.ncnn::GroupNorm", ptr %15, i32 0, i32 1
  %22 = load i32, ptr %21, align 8, !tbaa !13
  %23 = sdiv i32 %20, %22
  store i32 %23, ptr %8, align 4, !tbaa !44
  %24 = load i32, ptr %7, align 4, !tbaa !44
  %25 = icmp eq i32 %24, 1
  br i1 %25, label %26, label %31

26:                                               ; preds = %3
  %27 = load ptr, ptr %6, align 8, !tbaa !41
  %28 = getelementptr inbounds nuw %"class.ncnn::Option", ptr %27, i32 0, i32 1
  %29 = load i32, ptr %28, align 4, !tbaa !45
  call void @__kmpc_push_num_threads(ptr @2, i32 %14, i32 %29)
  %30 = load ptr, ptr %5, align 8, !tbaa !40
  call void (ptr, i32, ptr, ...) @__kmpc_fork_call(ptr @2, i32 3, ptr @_ZNK4ncnn9GroupNorm15forward_inplaceERNS_3MatERKNS_6OptionE.omp_outlined, ptr %15, ptr %30, ptr %8)
  br label %31

31:                                               ; preds = %26, %3
  %32 = load i32, ptr %7, align 4, !tbaa !44
  %33 = icmp eq i32 %32, 2
  br i1 %33, label %34, label %42

34:                                               ; preds = %31
  call void @llvm.lifetime.start.p0(i64 4, ptr %9) #10
  %35 = load ptr, ptr %5, align 8, !tbaa !40
  %36 = getelementptr inbounds nuw %"class.ncnn::Mat", ptr %35, i32 0, i32 6
  %37 = load i32, ptr %36, align 4, !tbaa !47
  store i32 %37, ptr %9, align 4, !tbaa !44
  %38 = load ptr, ptr %6, align 8, !tbaa !41
  %39 = getelementptr inbounds nuw %"class.ncnn::Option", ptr %38, i32 0, i32 1
  %40 = load i32, ptr %39, align 4, !tbaa !45
  call void @__kmpc_push_num_threads(ptr @2, i32 %14, i32 %40)
  %41 = load ptr, ptr %5, align 8, !tbaa !40
  call void (ptr, i32, ptr, ...) @__kmpc_fork_call(ptr @2, i32 4, ptr @_ZNK4ncnn9GroupNorm15forward_inplaceERNS_3MatERKNS_6OptionE.omp_outlined.1, ptr %15, ptr %41, ptr %8, ptr %9)
  call void @llvm.lifetime.end.p0(i64 4, ptr %9) #10
  br label %42

42:                                               ; preds = %34, %31
  %43 = load i32, ptr %7, align 4, !tbaa !44
  %44 = icmp eq i32 %43, 3
  br i1 %44, label %48, label %45

45:                                               ; preds = %42
  %46 = load i32, ptr %7, align 4, !tbaa !44
  %47 = icmp eq i32 %46, 4
  br i1 %47, label %48, label %67

48:                                               ; preds = %45, %42
  call void @llvm.lifetime.start.p0(i64 4, ptr %10) #10
  %49 = load ptr, ptr %5, align 8, !tbaa !40
  %50 = getelementptr inbounds nuw %"class.ncnn::Mat", ptr %49, i32 0, i32 6
  %51 = load i32, ptr %50, align 4, !tbaa !47
  store i32 %51, ptr %10, align 4, !tbaa !44
  call void @llvm.lifetime.start.p0(i64 4, ptr %11) #10
  %52 = load ptr, ptr %5, align 8, !tbaa !40
  %53 = getelementptr inbounds nuw %"class.ncnn::Mat", ptr %52, i32 0, i32 7
  %54 = load i32, ptr %53, align 8, !tbaa !48
  store i32 %54, ptr %11, align 4, !tbaa !44
  call void @llvm.lifetime.start.p0(i64 4, ptr %12) #10
  %55 = load ptr, ptr %5, align 8, !tbaa !40
  %56 = getelementptr inbounds nuw %"class.ncnn::Mat", ptr %55, i32 0, i32 8
  %57 = load i32, ptr %56, align 4, !tbaa !49
  store i32 %57, ptr %12, align 4, !tbaa !44
  call void @llvm.lifetime.start.p0(i64 4, ptr %13) #10
  %58 = load i32, ptr %10, align 4, !tbaa !44
  %59 = load i32, ptr %11, align 4, !tbaa !44
  %60 = mul nsw i32 %58, %59
  %61 = load i32, ptr %12, align 4, !tbaa !44
  %62 = mul nsw i32 %60, %61
  store i32 %62, ptr %13, align 4, !tbaa !44
  %63 = load ptr, ptr %6, align 8, !tbaa !41
  %64 = getelementptr inbounds nuw %"class.ncnn::Option", ptr %63, i32 0, i32 1
  %65 = load i32, ptr %64, align 4, !tbaa !45
  call void @__kmpc_push_num_threads(ptr @2, i32 %14, i32 %65)
  %66 = load ptr, ptr %5, align 8, !tbaa !40
  call void (ptr, i32, ptr, ...) @__kmpc_fork_call(ptr @2, i32 4, ptr @_ZNK4ncnn9GroupNorm15forward_inplaceERNS_3MatERKNS_6OptionE.omp_outlined.2, ptr %15, ptr %66, ptr %8, ptr %13)
  call void @llvm.lifetime.end.p0(i64 4, ptr %13) #10
  call void @llvm.lifetime.end.p0(i64 4, ptr %12) #10
  call void @llvm.lifetime.end.p0(i64 4, ptr %11) #10
  call void @llvm.lifetime.end.p0(i64 4, ptr %10) #10
  br label %67

67:                                               ; preds = %48, %45
  call void @llvm.lifetime.end.p0(i64 4, ptr %8) #10
  call void @llvm.lifetime.end.p0(i64 4, ptr %7) #10
  ret i32 0
}