; Function Attrs: mustprogress nounwind uwtable
define hidden noundef i32 @_ZNK4ncnn9GroupNorm15forward_inplaceERNS_3MatERKNS_6OptionE(ptr noundef nonnull align 8 dereferenceable(368) %0, ptr noundef nonnull align 8 dereferenceable(72) %1, ptr noundef nonnull readonly align 8 captures(none) dereferenceable(64) %2) unnamed_addr #3 align 2 {
  %4 = alloca i32, align 4
  %5 = alloca i32, align 4
  %6 = alloca i32, align 4
  %7 = tail call i32 @__kmpc_global_thread_num(ptr nonnull @2)
  %8 = getelementptr inbounds nuw i8, ptr %1, i64 40
  %9 = load i32, ptr %8, align 8, !tbaa !40
  call void @llvm.lifetime.start.p0(i64 4, ptr nonnull %4) #10
  %10 = getelementptr inbounds nuw i8, ptr %0, i64 212
  %11 = load i32, ptr %10, align 4, !tbaa !35
  %12 = getelementptr inbounds nuw i8, ptr %0, i64 208
  %13 = load i32, ptr %12, align 8, !tbaa !18
  %14 = sdiv i32 %11, %13
  store i32 %14, ptr %4, align 4, !tbaa !45
  switch i32 %9, label %23 [
    i32 1, label %15
    i32 2, label %18
  ]

15:                                               ; preds = %3
  %16 = getelementptr inbounds nuw i8, ptr %2, i64 4
  %17 = load i32, ptr %16, align 4, !tbaa !46
  tail call void @__kmpc_push_num_threads(ptr nonnull @2, i32 %7, i32 %17)
  call void (ptr, i32, ptr, ...) @__kmpc_fork_call(ptr nonnull @2, i32 3, ptr nonnull @_ZNK4ncnn9GroupNorm15forward_inplaceERNS_3MatERKNS_6OptionE.omp_outlined, ptr nonnull %0, ptr nonnull %1, ptr nonnull %4)
  br label %.thread

18:                                               ; preds = %3
  call void @llvm.lifetime.start.p0(i64 4, ptr nonnull %5) #10
  %19 = getelementptr inbounds nuw i8, ptr %1, i64 44
  %20 = load i32, ptr %19, align 4, !tbaa !41
  store i32 %20, ptr %5, align 4, !tbaa !45
  %21 = getelementptr inbounds nuw i8, ptr %2, i64 4
  %22 = load i32, ptr %21, align 4, !tbaa !46
  tail call void @__kmpc_push_num_threads(ptr nonnull @2, i32 %7, i32 %22)
  call void (ptr, i32, ptr, ...) @__kmpc_fork_call(ptr nonnull @2, i32 4, ptr nonnull @_ZNK4ncnn9GroupNorm15forward_inplaceERNS_3MatERKNS_6OptionE.omp_outlined.1, ptr nonnull %0, ptr nonnull %1, ptr nonnull %4, ptr nonnull %5)
  call void @llvm.lifetime.end.p0(i64 4, ptr nonnull %5) #10
  br label %.thread

23:                                               ; preds = %3
  %24 = add i32 %9, -3
  %or.cond = icmp ult i32 %24, 2
  br i1 %or.cond, label %25, label %.thread

25:                                               ; preds = %23
  %26 = getelementptr inbounds nuw i8, ptr %1, i64 44
  %27 = load i32, ptr %26, align 4, !tbaa !41
  %28 = getelementptr inbounds nuw i8, ptr %1, i64 48
  %29 = load i32, ptr %28, align 8, !tbaa !42
  %30 = getelementptr inbounds nuw i8, ptr %1, i64 52
  %31 = load i32, ptr %30, align 4, !tbaa !43
  call void @llvm.lifetime.start.p0(i64 4, ptr nonnull %6) #10
  %32 = mul nsw i32 %29, %27
  %33 = mul nsw i32 %32, %31
  store i32 %33, ptr %6, align 4, !tbaa !45
  %34 = getelementptr inbounds nuw i8, ptr %2, i64 4
  %35 = load i32, ptr %34, align 4, !tbaa !46
  tail call void @__kmpc_push_num_threads(ptr nonnull @2, i32 %7, i32 %35)
  call void (ptr, i32, ptr, ...) @__kmpc_fork_call(ptr nonnull @2, i32 4, ptr nonnull @_ZNK4ncnn9GroupNorm15forward_inplaceERNS_3MatERKNS_6OptionE.omp_outlined.2, ptr nonnull %0, ptr nonnull %1, ptr nonnull %4, ptr nonnull %6)
  call void @llvm.lifetime.end.p0(i64 4, ptr nonnull %6) #10
  br label %.thread

.thread:                                          ; preds = %18, %15, %23, %25
  call void @llvm.lifetime.end.p0(i64 4, ptr nonnull %4) #10
  ret i32 0
}